target datalayout = "e-m:e-p270:32:32-p271:32:32-p272:64:64-i64:64-i128:128-f80:128-n8:16:32:64-S128"
target triple = "x86_64-pc-linux-gnu"

%struct.Vec_Int_t_ = type { i32, i32, ptr }
%struct.Gia_Man_t_ = type { ptr, ptr, i32, i32, i32, i32, ptr, ptr, i32, i32, i32, ptr, ptr, %struct.Vec_Int_t_, %struct.Vec_Int_t_, i32, i32, i32, %struct.Vec_Int_t_, ptr, ptr, ptr, i32, i32, i32, i32, ptr, ptr, ptr, ptr, ptr, i32, i32, ptr, i32, ptr, ptr, ptr, ptr, ptr, ptr, ptr, ptr, ptr, ptr, ptr, ptr, ptr, ptr, ptr, ptr, ptr, ptr, %struct.Vec_Int_t_, %struct.Vec_Int_t_, ptr, ptr, ptr, ptr, ptr, ptr, ptr, ptr, ptr, ptr, ptr, ptr, ptr, ptr, ptr, ptr, ptr, ptr, ptr, ptr, ptr, i32, float, float, ptr, ptr, i32, ptr, ptr, ptr, ptr, ptr, ptr, ptr, ptr, ptr, ptr, ptr, ptr, ptr, ptr, ptr, i64, i64, ptr, ptr, i32, i32, i32, i32, i32, i32, i32, i32, i32, i32, i32, i32, ptr, ptr, ptr, ptr, ptr, ptr, ptr, ptr, i32, i32, i32, ptr, i32, i32, ptr, ptr, ptr, ptr, ptr, ptr, i32, i32, ptr, %struct.Vec_Int_t_, %struct.Vec_Int_t_, %struct.Vec_Int_t_, ptr, ptr, ptr, i32, i32, i32, i32, ptr, ptr, ptr, ptr, ptr }
%struct.Gia_Obj_t_ = type <{ i64, i32 }>
%struct.Vec_Wrd_t_ = type { i32, i32, ptr }

@.str.14 = private unnamed_addr constant [3 x i8] c"%d\00", align 1
@.str.15 = private unnamed_addr constant [2 x i8] c" \00", align 1
@.str.16 = private unnamed_addr constant [2 x i8] c"\0A\00", align 1

; Function Attrs: inlinehint nounwind uwtable
define internal ptr @Gia_ManObj(ptr noundef %0, i32 noundef %1) #3 {
  %3 = alloca ptr, align 8
  %4 = alloca i32, align 4
  store ptr %0, ptr %3, align 8, !tbaa !34
  store i32 %1, ptr %4, align 4, !tbaa !14
  %5 = load ptr, ptr %3, align 8, !tbaa !34
  %6 = getelementptr inbounds nuw %struct.Gia_Man_t_, ptr %5, i32 0, i32 6
  %7 = load ptr, ptr %6, align 8, !tbaa !67
  %8 = load i32, ptr %4, align 4, !tbaa !14
  %9 = sext i32 %8 to i64
  %10 = getelementptr inbounds %struct.Gia_Obj_t_, ptr %7, i64 %9
  ret ptr %10
}

; Function Attrs: inlinehint nounwind uwtable
define internal i32 @Vec_IntEntry(ptr noundef %0, i32 noundef %1) #3 {
  %3 = alloca ptr, align 8
  %4 = alloca i32, align 4
  store ptr %0, ptr %3, align 8, !tbaa !16
  store i32 %1, ptr %4, align 4, !tbaa !14
  %5 = load ptr, ptr %3, align 8, !tbaa !16
  %6 = getelementptr inbounds nuw %struct.Vec_Int_t_, ptr %5, i32 0, i32 2
  %7 = load ptr, ptr %6, align 8, !tbaa !28
  %8 = load i32, ptr %4, align 4, !tbaa !14
  %9 = sext i32 %8 to i64
  %10 = getelementptr inbounds i32, ptr %7, i64 %9
  %11 = load i32, ptr %10, align 4, !tbaa !14
  ret i32 %11
}

; Function Attrs: inlinehint nounwind uwtable
define internal ptr @Gia_ManCo(ptr noundef %0, i32 noundef %1) #3 {
  %3 = alloca ptr, align 8
  %4 = alloca i32, align 4
  store ptr %0, ptr %3, align 8, !tbaa !34
  store i32 %1, ptr %4, align 4, !tbaa !14
  %5 = load ptr, ptr %3, align 8, !tbaa !34
  %6 = load ptr, ptr %3, align 8, !tbaa !34
  %7 = getelementptr inbounds nuw %struct.Gia_Man_t_, ptr %6, i32 0, i32 12
  %8 = load ptr, ptr %7, align 8, !tbaa !58
  %9 = load i32, ptr %4, align 4, !tbaa !14
  %10 = call i32 @Vec_IntEntry(ptr noundef %8, i32 noundef %9)
  %11 = call ptr @Gia_ManObj(ptr noundef %5, i32 noundef %10)
  ret ptr %11
}

; Function Attrs: inlinehint nounwind uwtable
define internal i64 @Vec_WrdEntry(ptr noundef %0, i32 noundef %1) #3 {
  %3 = alloca ptr, align 8
  %4 = alloca i32, align 4
  store ptr %0, ptr %3, align 8, !tbaa !71
  store i32 %1, ptr %4, align 4, !tbaa !14
  %5 = load ptr, ptr %3, align 8, !tbaa !71
  %6 = getelementptr inbounds nuw %struct.Vec_Wrd_t_, ptr %5, i32 0, i32 2
  %7 = load ptr, ptr %6, align 8, !tbaa !78
  %8 = load i32, ptr %4, align 4, !tbaa !14
  %9 = sext i32 %8 to i64
  %10 = getelementptr inbounds i64, ptr %7, i64 %9
  %11 = load i64, ptr %10, align 8, !tbaa !79
  ret i64 %11
}

; Function Attrs: inlinehint nounwind uwtable
define internal i32 @Gia_ObjId(ptr noundef %0, ptr noundef %1) #3 {
  %3 = alloca ptr, align 8
  %4 = alloca ptr, align 8
  store ptr %0, ptr %3, align 8, !tbaa !34
  store ptr %1, ptr %4, align 8, !tbaa !56
  %5 = load ptr, ptr %4, align 8, !tbaa !56
  %6 = load ptr, ptr %3, align 8, !tbaa !34
  %7 = getelementptr inbounds nuw %struct.Gia_Man_t_, ptr %6, i32 0, i32 6
  %8 = load ptr, ptr %7, align 8, !tbaa !67
  %9 = ptrtoint ptr %5 to i64
  %10 = ptrtoint ptr %8 to i64
  %11 = sub i64 %9, %10
  %12 = sdiv exact i64 %11, 12
  %13 = trunc i64 %12 to i32
  ret i32 %13
}

; Function Attrs: inlinehint nounwind uwtable
define internal ptr @Gia_ManCi(ptr noundef %0, i32 noundef %1) #3 {
  %3 = alloca ptr, align 8
  %4 = alloca i32, align 4
  store ptr %0, ptr %3, align 8, !tbaa !34
  store i32 %1, ptr %4, align 4, !tbaa !14
  %5 = load ptr, ptr %3, align 8, !tbaa !34
  %6 = load ptr, ptr %3, align 8, !tbaa !34
  %7 = getelementptr inbounds nuw %struct.Gia_Man_t_, ptr %6, i32 0, i32 11
  %8 = load ptr, ptr %7, align 8, !tbaa !55
  %9 = load i32, ptr %4, align 4, !tbaa !14
  %10 = call i32 @Vec_IntEntry(ptr noundef %8, i32 noundef %9)
  %11 = call ptr @Gia_ManObj(ptr noundef %5, i32 noundef %10)
  ret ptr %11
}

; Function Attrs: inlinehint nounwind uwtable
define internal i32 @Vec_IntSize(ptr noundef %0) #3 {
  %2 = alloca ptr, align 8
  store ptr %0, ptr %2, align 8, !tbaa !16
  %3 = load ptr, ptr %2, align 8, !tbaa !16
  %4 = getelementptr inbounds nuw %struct.Vec_Int_t_, ptr %3, i32 0, i32 1
  %5 = load i32, ptr %4, align 4, !tbaa !25
  ret i32 %5
}

; Function Attrs: nounwind uwtable
define void @Gia_ManSimInfoPrintOne(ptr noundef %0, ptr noundef %1, ptr noundef %2, i32 noundef %3, i32 noundef %4) #0 {
  %6 = alloca ptr, align 8
  %7 = alloca ptr, align 8
  %8 = alloca ptr, align 8
  %9 = alloca i32, align 4
  %10 = alloca i32, align 4
  %11 = alloca i32, align 4
  %12 = alloca i32, align 4
  %13 = alloca i32, align 4
  store ptr %0, ptr %6, align 8, !tbaa !34
  store ptr %1, ptr %7, align 8, !tbaa !71
  store ptr %2, ptr %8, align 8, !tbaa !71
  store i32 %3, ptr %9, align 4, !tbaa !14
  store i32 %4, ptr %10, align 4, !tbaa !14
  call void @llvm.lifetime.start.p0(i64 4, ptr %11) #13
  call void @llvm.lifetime.start.p0(i64 4, ptr %12) #13
  call void @llvm.lifetime.start.p0(i64 4, ptr %13) #13
  store i32 0, ptr %13, align 4, !tbaa !14
  br label %14

14:                                               ; preds = %85, %5
  %15 = load i32, ptr %13, align 4, !tbaa !14
  %16 = load i32, ptr %10, align 4, !tbaa !14
  %17 = icmp slt i32 %15, %16
  br i1 %17, label %18, label %88

18:                                               ; preds = %14
  store i32 0, ptr %12, align 4, !tbaa !14
  br label %19

19:                                               ; preds = %47, %18
  %20 = load i32, ptr %12, align 4, !tbaa !14
  %21 = load ptr, ptr %6, align 8, !tbaa !34
  %22 = getelementptr inbounds nuw %struct.Gia_Man_t_, ptr %21, i32 0, i32 11
  %23 = load ptr, ptr %22, align 8, !tbaa !55
  %24 = call i32 @Vec_IntSize(ptr noundef %23)
  %25 = icmp slt i32 %20, %24
  br i1 %25, label %26, label %33

26:                                               ; preds = %19
  %27 = load ptr, ptr %6, align 8, !tbaa !34
  %28 = load ptr, ptr %6, align 8, !tbaa !34
  %29 = load i32, ptr %12, align 4, !tbaa !14
  %30 = call ptr @Gia_ManCi(ptr noundef %28, i32 noundef %29)
  %31 = call i32 @Gia_ObjId(ptr noundef %27, ptr noundef %30)
  store i32 %31, ptr %11, align 4, !tbaa !14
  %32 = icmp ne i32 %31, 0
  br label %33

33:                                               ; preds = %26, %19
  %34 = phi i1 [ false, %19 ], [ %32, %26 ]
  br i1 %34, label %35, label %50

35:                                               ; preds = %33
  %36 = load ptr, ptr %7, align 8, !tbaa !71
  %37 = load i32, ptr %9, align 4, !tbaa !14
  %38 = load i32, ptr %12, align 4, !tbaa !14
  %39 = mul nsw i32 %37, %38
  %40 = call i64 @Vec_WrdEntry(ptr noundef %36, i32 noundef %39)
  %41 = load i32, ptr %13, align 4, !tbaa !14
  %42 = zext i32 %41 to i64
  %43 = lshr i64 %40, %42
  %44 = trunc i64 %43 to i32
  %45 = and i32 %44, 1
  %46 = call i32 (ptr, ...) @printf(ptr noundef @.str.14, i32 noundef %45)
  br label %47

47:                                               ; preds = %35
  %48 = load i32, ptr %12, align 4, !tbaa !14
  %49 = add nsw i32 %48, 1
  store i32 %49, ptr %12, align 4, !tbaa !14
  br label %19, !llvm.loop !88

50:                                               ; preds = %33
  %51 = call i32 (ptr, ...) @printf(ptr noundef @.str.15)
  store i32 0, ptr %12, align 4, !tbaa !14
  br label %52

52:                                               ; preds = %80, %50
  %53 = load i32, ptr %12, align 4, !tbaa !14
  %54 = load ptr, ptr %6, align 8, !tbaa !34
  %55 = getelementptr inbounds nuw %struct.Gia_Man_t_, ptr %54, i32 0, i32 12
  %56 = load ptr, ptr %55, align 8, !tbaa !58
  %57 = call i32 @Vec_IntSize(ptr noundef %56)
  %58 = icmp slt i32 %53, %57
  br i1 %58, label %59, label %66

59:                                               ; preds = %52
  %60 = load ptr, ptr %6, align 8, !tbaa !34
  %61 = load ptr, ptr %6, align 8, !tbaa !34
  %62 = load i32, ptr %12, align 4, !tbaa !14
  %63 = call ptr @Gia_ManCo(ptr noundef %61, i32 noundef %62)
  %64 = call i32 @Gia_ObjId(ptr noundef %60, ptr noundef %63)
  store i32 %64, ptr %11, align 4, !tbaa !14
  %65 = icmp ne i32 %64, 0
  br label %66

66:                                               ; preds = %59, %52
  %67 = phi i1 [ false, %52 ], [ %65, %59 ]
  br i1 %67, label %68, label %83

68:                                               ; preds = %66
  %69 = load ptr, ptr %8, align 8, !tbaa !71
  %70 = load i32, ptr %9, align 4, !tbaa !14
  %71 = load i32, ptr %12, align 4, !tbaa !14
  %72 = mul nsw i32 %70, %71
  %73 = call i64 @Vec_WrdEntry(ptr noundef %69, i32 noundef %72)
  %74 = load i32, ptr %13, align 4, !tbaa !14
  %75 = zext i32 %74 to i64
  %76 = lshr i64 %73, %75
  %77 = trunc i64 %76 to i32
  %78 = and i32 %77, 1
  %79 = call i32 (ptr, ...) @printf(ptr noundef @.str.14, i32 noundef %78)
  br label %80

80:                                               ; preds = %68
  %81 = load i32, ptr %12, align 4, !tbaa !14
  %82 = add nsw i32 %81, 1
  store i32 %82, ptr %12, align 4, !tbaa !14
  br label %52, !llvm.loop !89

83:                                               ; preds = %66
  %84 = call i32 (ptr, ...) @printf(ptr noundef @.str.16)
  br label %85

85:                                               ; preds = %83
  %86 = load i32, ptr %13, align 4, !tbaa !14
  %87 = add nsw i32 %86, 1
  store i32 %87, ptr %13, align 4, !tbaa !14
  br label %14, !llvm.loop !90

88:                                               ; preds = %14
  call void @llvm.lifetime.end.p0(i64 4, ptr %13) #13
  call void @llvm.lifetime.end.p0(i64 4, ptr %12) #13
  call void @llvm.lifetime.end.p0(i64 4, ptr %11) #13
  ret void
}