; Function Attrs: nofree nounwind uwtable
define void @Gia_ManSimInfoPrintOne(ptr noundef readonly captures(none) %0, ptr noundef readonly captures(none) %1, ptr noundef readonly captures(none) %2, i32 noundef %3, i32 noundef %4) local_unnamed_addr #9 {
  %6 = icmp sgt i32 %4, 0
  br i1 %6, label %.preheader.lr.ph, label %._crit_edge

.preheader.lr.ph:                                 ; preds = %5
  %7 = getelementptr inbounds nuw i8, ptr %0, i64 64
  %8 = getelementptr i8, ptr %1, i64 8
  %9 = getelementptr inbounds nuw i8, ptr %0, i64 72
  %10 = getelementptr i8, ptr %2, i64 8
  %11 = sext i32 %3 to i64
  %wide.trip.count = zext nneg i32 %4 to i64
  br label %.preheader

.preheader:                                       ; preds = %.preheader.lr.ph, %.critedge2
  %indvars.iv48 = phi i64 [ 0, %.preheader.lr.ph ], [ %indvars.iv.next49, %.critedge2 ]
  %12 = load ptr, ptr %7, align 8, !tbaa !49
  %13 = getelementptr i8, ptr %12, i64 4
  %.val2736 = load i32, ptr %13, align 4, !tbaa !13
  %14 = icmp sgt i32 %.val2736, 0
  br i1 %14, label %.lr.ph, label %.critedge

.lr.ph:                                           ; preds = %.preheader, %19
  %indvars.iv = phi i64 [ %indvars.iv.next, %19 ], [ 0, %.preheader ]
  %15 = phi ptr [ %27, %19 ], [ %12, %.preheader ]
  %16 = getelementptr i8, ptr %15, i64 8
  %.val31.val = load ptr, ptr %16, align 8, !tbaa !17
  %17 = getelementptr inbounds nuw i32, ptr %.val31.val, i64 %indvars.iv
  %18 = load i32, ptr %17, align 4, !tbaa !12
  %.not = icmp eq i32 %18, 0
  br i1 %.not, label %.critedge, label %19

19:                                               ; preds = %.lr.ph
  %20 = mul nsw i64 %indvars.iv, %11
  %.val35 = load ptr, ptr %8, align 8, !tbaa !59
  %21 = getelementptr inbounds i64, ptr %.val35, i64 %20
  %22 = load i64, ptr %21, align 8, !tbaa !62
  %23 = lshr i64 %22, %indvars.iv48
  %24 = trunc i64 %23 to i32
  %25 = and i32 %24, 1
  %26 = tail call i32 (ptr, ...) @printf(ptr noundef nonnull dereferenceable(1) @.str.14, i32 noundef %25)
  %indvars.iv.next = add nuw nsw i64 %indvars.iv, 1
  %27 = load ptr, ptr %7, align 8, !tbaa !49
  %28 = getelementptr i8, ptr %27, i64 4
  %.val27 = load i32, ptr %28, align 4, !tbaa !13
  %29 = sext i32 %.val27 to i64
  %30 = icmp slt i64 %indvars.iv.next, %29
  br i1 %30, label %.lr.ph, label %.critedge, !llvm.loop !75

.critedge:                                        ; preds = %.lr.ph, %19, %.preheader
  %putchar = tail call i32 @putchar(i32 32)
  %31 = load ptr, ptr %9, align 8, !tbaa !50
  %32 = getelementptr i8, ptr %31, i64 4
  %.val39 = load i32, ptr %32, align 4, !tbaa !13
  %33 = icmp sgt i32 %.val39, 0
  br i1 %33, label %.lr.ph41, label %.critedge2

.lr.ph41:                                         ; preds = %.critedge, %38
  %indvars.iv45 = phi i64 [ %indvars.iv.next46, %38 ], [ 0, %.critedge ]
  %34 = phi ptr [ %46, %38 ], [ %31, %.critedge ]
  %35 = getelementptr i8, ptr %34, i64 8
  %.val33.val = load ptr, ptr %35, align 8, !tbaa !17
  %36 = getelementptr inbounds nuw i32, ptr %.val33.val, i64 %indvars.iv45
  %37 = load i32, ptr %36, align 4, !tbaa !12
  %.not25 = icmp eq i32 %37, 0
  br i1 %.not25, label %.critedge2, label %38

38:                                               ; preds = %.lr.ph41
  %39 = mul nsw i64 %indvars.iv45, %11
  %.val34 = load ptr, ptr %10, align 8, !tbaa !59
  %40 = getelementptr inbounds i64, ptr %.val34, i64 %39
  %41 = load i64, ptr %40, align 8, !tbaa !62
  %42 = lshr i64 %41, %indvars.iv48
  %43 = trunc i64 %42 to i32
  %44 = and i32 %43, 1
  %45 = tail call i32 (ptr, ...) @printf(ptr noundef nonnull dereferenceable(1) @.str.14, i32 noundef %44)
  %indvars.iv.next46 = add nuw nsw i64 %indvars.iv45, 1
  %46 = load ptr, ptr %9, align 8, !tbaa !50
  %47 = getelementptr i8, ptr %46, i64 4
  %.val = load i32, ptr %47, align 4, !tbaa !13
  %48 = sext i32 %.val to i64
  %49 = icmp slt i64 %indvars.iv.next46, %48
  br i1 %49, label %.lr.ph41, label %.critedge2, !llvm.loop !76

.critedge2:                                       ; preds = %.lr.ph41, %38, %.critedge
  %putchar26 = tail call i32 @putchar(i32 10)
  %indvars.iv.next49 = add nuw nsw i64 %indvars.iv48, 1
  %exitcond.not = icmp eq i64 %indvars.iv.next49, %wide.trip.count
  br i1 %exitcond.not, label %._crit_edge, label %.preheader, !llvm.loop !77

._crit_edge:                                      ; preds = %.critedge2, %5
  ret void
}